target datalayout = "e-m:e-p270:32:32-p271:32:32-p272:64:64-i64:64-i128:128-f80:128-n8:16:32:64-S128"
target triple = "x86_64-pc-linux-gnu"

%struct.test_fixture = type { ptr, i32, ptr, ptr, ptr, ptr, i32 }
%struct.ossl_cmp_msg_st = type { ptr, ptr, ptr, ptr, ptr, ptr }
%struct.ossl_cmp_pkibody_st = type { i32, %union.anon }
%union.anon = type { ptr }
%struct.ossl_crmf_msg_st = type { ptr, ptr, ptr }
%struct.ossl_crmf_popo_st = type { i32, %union.anon.0 }
%union.anon.0 = type { ptr }
%struct.ossl_crmf_poposigningkey_st = type { ptr, ptr, ptr }

@libctx = internal global ptr null, align 8
@.str.14 = private unnamed_addr constant [31 x i8] c"../openssl/test/cmp_vfy_test.c\00", align 1
@ir_protected_f = internal global ptr null, align 8
@.str.75 = private unnamed_addr constant [18 x i8] c"fixture->expected\00", align 1
@.str.76 = private unnamed_addr constant [78 x i8] c"ossl_cmp_verify_popo(fixture->cmp_ctx, fixture->msg, fixture->additional_arg)\00", align 1

; Function Attrs: nounwind uwtable
define internal i32 @flip_bit(ptr noundef %0) #0 {
  %2 = alloca ptr, align 8
  %3 = alloca i32, align 4
  %4 = alloca i32, align 4
  store ptr %0, ptr %2, align 8, !tbaa !58
  call void @llvm.lifetime.start.p0(i64 4, ptr %3) #7
  store i32 7, ptr %3, align 4, !tbaa !26
  call void @llvm.lifetime.start.p0(i64 4, ptr %4) #7
  %5 = load ptr, ptr %2, align 8, !tbaa !58
  %6 = load i32, ptr %3, align 4, !tbaa !26
  %7 = call i32 @ASN1_BIT_STRING_get_bit(ptr noundef %5, i32 noundef %6)
  store i32 %7, ptr %4, align 4, !tbaa !26
  %8 = load ptr, ptr %2, align 8, !tbaa !58
  %9 = load i32, ptr %3, align 4, !tbaa !26
  %10 = load i32, ptr %4, align 4, !tbaa !26
  %11 = icmp ne i32 %10, 0
  %12 = xor i1 %11, true
  %13 = zext i1 %12 to i32
  %14 = call i32 @ASN1_BIT_STRING_set_bit(ptr noundef %8, i32 noundef %9, i32 noundef %13)
  call void @llvm.lifetime.end.p0(i64 4, ptr %4) #7
  call void @llvm.lifetime.end.p0(i64 4, ptr %3) #7
  ret i32 %14
}

; Function Attrs: inlinehint nounwind uwtable
define internal ptr @ossl_check_const_OSSL_CRMF_MSG_sk_type(ptr noundef %0) #5 {
  %2 = alloca ptr, align 8
  store ptr %0, ptr %2, align 8, !tbaa !44
  %3 = load ptr, ptr %2, align 8, !tbaa !44
  ret ptr %3
}

; Function Attrs: nounwind uwtable
define internal i32 @execute_verify_popo_test(ptr noundef %0) #0 {
  %2 = alloca i32, align 4
  %3 = alloca ptr, align 8
  %4 = alloca ptr, align 8
  %5 = alloca ptr, align 8
  %6 = alloca i32, align 4
  store ptr %0, ptr %3, align 8, !tbaa !24
  %7 = load ptr, ptr @ir_protected_f, align 8, !tbaa !23
  %8 = load ptr, ptr @libctx, align 8, !tbaa !13
  %9 = call ptr @load_pkimsg(ptr noundef %7, ptr noundef %8)
  %10 = load ptr, ptr %3, align 8, !tbaa !24
  %11 = getelementptr inbounds nuw %struct.test_fixture, ptr %10, i32 0, i32 3
  store ptr %9, ptr %11, align 8, !tbaa !31
  %12 = icmp eq ptr %9, null
  br i1 %12, label %13, label %14

13:                                               ; preds = %1
  store i32 0, ptr %2, align 4
  br label %62

14:                                               ; preds = %1
  %15 = load ptr, ptr %3, align 8, !tbaa !24
  %16 = getelementptr inbounds nuw %struct.test_fixture, ptr %15, i32 0, i32 1
  %17 = load i32, ptr %16, align 8, !tbaa !27
  %18 = icmp eq i32 %17, 0
  br i1 %18, label %19, label %47

19:                                               ; preds = %14
  call void @llvm.lifetime.start.p0(i64 8, ptr %4) #7
  %20 = load ptr, ptr %3, align 8, !tbaa !24
  %21 = getelementptr inbounds nuw %struct.test_fixture, ptr %20, i32 0, i32 3
  %22 = load ptr, ptr %21, align 8, !tbaa !31
  %23 = getelementptr inbounds nuw %struct.ossl_cmp_msg_st, ptr %22, i32 0, i32 1
  %24 = load ptr, ptr %23, align 8, !tbaa !42
  %25 = getelementptr inbounds nuw %struct.ossl_cmp_pkibody_st, ptr %24, i32 0, i32 1
  %26 = load ptr, ptr %25, align 8, !tbaa !43
  store ptr %26, ptr %4, align 8, !tbaa !44
  call void @llvm.lifetime.start.p0(i64 8, ptr %5) #7
  %27 = load ptr, ptr %4, align 8, !tbaa !44
  %28 = call ptr @ossl_check_const_OSSL_CRMF_MSG_sk_type(ptr noundef %27)
  %29 = call ptr @OPENSSL_sk_value(ptr noundef %28, i32 noundef 0)
  store ptr %29, ptr %5, align 8, !tbaa !46
  %30 = load ptr, ptr %5, align 8, !tbaa !46
  %31 = icmp eq ptr %30, null
  br i1 %31, label %42, label %32

32:                                               ; preds = %19
  %33 = load ptr, ptr %5, align 8, !tbaa !46
  %34 = getelementptr inbounds nuw %struct.ossl_crmf_msg_st, ptr %33, i32 0, i32 1
  %35 = load ptr, ptr %34, align 8, !tbaa !48
  %36 = getelementptr inbounds nuw %struct.ossl_crmf_popo_st, ptr %35, i32 0, i32 1
  %37 = load ptr, ptr %36, align 8, !tbaa !43
  %38 = getelementptr inbounds nuw %struct.ossl_crmf_poposigningkey_st, ptr %37, i32 0, i32 2
  %39 = load ptr, ptr %38, align 8, !tbaa !53
  %40 = call i32 @flip_bit(ptr noundef %39)
  %41 = icmp ne i32 %40, 0
  br i1 %41, label %43, label %42

42:                                               ; preds = %32, %19
  store i32 0, ptr %2, align 4
  store i32 1, ptr %6, align 4
  br label %44

43:                                               ; preds = %32
  store i32 0, ptr %6, align 4
  br label %44

44:                                               ; preds = %43, %42
  call void @llvm.lifetime.end.p0(i64 8, ptr %5) #7
  call void @llvm.lifetime.end.p0(i64 8, ptr %4) #7
  %45 = load i32, ptr %6, align 4
  switch i32 %45, label %64 [
    i32 0, label %46
    i32 1, label %62
  ]

46:                                               ; preds = %44
  br label %47

47:                                               ; preds = %46, %14
  %48 = load ptr, ptr %3, align 8, !tbaa !24
  %49 = getelementptr inbounds nuw %struct.test_fixture, ptr %48, i32 0, i32 1
  %50 = load i32, ptr %49, align 8, !tbaa !27
  %51 = load ptr, ptr %3, align 8, !tbaa !24
  %52 = getelementptr inbounds nuw %struct.test_fixture, ptr %51, i32 0, i32 2
  %53 = load ptr, ptr %52, align 8, !tbaa !32
  %54 = load ptr, ptr %3, align 8, !tbaa !24
  %55 = getelementptr inbounds nuw %struct.test_fixture, ptr %54, i32 0, i32 3
  %56 = load ptr, ptr %55, align 8, !tbaa !31
  %57 = load ptr, ptr %3, align 8, !tbaa !24
  %58 = getelementptr inbounds nuw %struct.test_fixture, ptr %57, i32 0, i32 6
  %59 = load i32, ptr %58, align 8, !tbaa !57
  %60 = call i32 @ossl_cmp_verify_popo(ptr noundef %53, ptr noundef %56, i32 noundef %59)
  %61 = call i32 @test_int_eq(ptr noundef @.str.14, i32 noundef 113, ptr noundef @.str.75, ptr noundef @.str.76, i32 noundef %50, i32 noundef %60)
  store i32 %61, ptr %2, align 4
  br label %62

62:                                               ; preds = %47, %44, %13
  %63 = load i32, ptr %2, align 4
  ret i32 %63

64:                                               ; preds = %44
  unreachable
}