; Function Attrs: nounwind uwtable
define internal fastcc i32 @execute_verify_popo_test(ptr noundef nonnull captures(none) initializes((24, 32)) %0) unnamed_addr #0 {
  %2 = load ptr, ptr @ir_protected_f, align 8, !tbaa !23
  %3 = load ptr, ptr @libctx, align 8, !tbaa !13
  %4 = tail call ptr @load_pkimsg(ptr noundef %2, ptr noundef %3) #7
  %5 = getelementptr inbounds nuw i8, ptr %0, i64 24
  store ptr %4, ptr %5, align 8, !tbaa !27
  %6 = icmp eq ptr %4, null
  br i1 %6, label %.thread, label %7

7:                                                ; preds = %1
  %8 = getelementptr inbounds nuw i8, ptr %0, i64 8
  %9 = load i32, ptr %8, align 8, !tbaa !24
  %10 = icmp eq i32 %9, 0
  br i1 %10, label %11, label %28

11:                                               ; preds = %7
  %12 = getelementptr inbounds nuw i8, ptr %4, i64 8
  %13 = load ptr, ptr %12, align 8, !tbaa !41
  %14 = getelementptr inbounds nuw i8, ptr %13, i64 8
  %15 = load ptr, ptr %14, align 8, !tbaa !42
  %16 = tail call ptr @OPENSSL_sk_value(ptr noundef %15, i32 noundef 0) #7
  %17 = icmp eq ptr %16, null
  br i1 %17, label %.thread, label %18

18:                                               ; preds = %11
  %19 = getelementptr inbounds nuw i8, ptr %16, i64 8
  %20 = load ptr, ptr %19, align 8, !tbaa !43
  %21 = getelementptr inbounds nuw i8, ptr %20, i64 8
  %22 = load ptr, ptr %21, align 8, !tbaa !42
  %23 = getelementptr inbounds nuw i8, ptr %22, i64 16
  %24 = load ptr, ptr %23, align 8, !tbaa !48
  %25 = tail call i32 @ASN1_BIT_STRING_get_bit(ptr noundef %24, i32 noundef 7) #7
  %.not.i = icmp eq i32 %25, 0
  %26 = zext i1 %.not.i to i32
  %27 = tail call i32 @ASN1_BIT_STRING_set_bit(ptr noundef %24, i32 noundef 7, i32 noundef %26) #7
  %.not.not = icmp eq i32 %27, 0
  br i1 %.not.not, label %.thread, label %._crit_edge

._crit_edge:                                      ; preds = %18
  %.pre = load i32, ptr %8, align 8, !tbaa !24
  %.pre16 = load ptr, ptr %5, align 8, !tbaa !27
  br label %28

28:                                               ; preds = %._crit_edge, %7
  %29 = phi ptr [ %.pre16, %._crit_edge ], [ %4, %7 ]
  %30 = phi i32 [ %.pre, %._crit_edge ], [ %9, %7 ]
  %31 = getelementptr inbounds nuw i8, ptr %0, i64 16
  %32 = load ptr, ptr %31, align 8, !tbaa !28
  %33 = getelementptr inbounds nuw i8, ptr %0, i64 48
  %34 = load i32, ptr %33, align 8, !tbaa !39
  %35 = tail call i32 @ossl_cmp_verify_popo(ptr noundef %32, ptr noundef %29, i32 noundef %34) #7
  %36 = tail call i32 @test_int_eq(ptr noundef nonnull @.str.14, i32 noundef 113, ptr noundef nonnull @.str.75, ptr noundef nonnull @.str.76, i32 noundef %30, i32 noundef %35) #7
  br label %.thread

.thread:                                          ; preds = %11, %18, %1, %28
  %.011 = phi i32 [ 0, %18 ], [ %36, %28 ], [ 0, %1 ], [ 0, %11 ]
  ret i32 %.011
}